target datalayout = "e-m:e-p270:32:32-p271:32:32-p272:64:64-i64:64-i128:128-f80:128-n8:16:32:64-S128"
target triple = "x86_64-pc-linux-gnu"

%struct.Node = type { i32 }
%struct.ForEachState = type { ptr, i32 }
%struct.List = type { i32, i32, i32, ptr, [0 x %union.ListCell] }
%union.ListCell = type { ptr }
%struct.FormData_pg_attribute = type { i32, %struct.nameData, i32, i16, i16, i32, i16, i8, i8, i8, i8, i8, i8, i8, i8, i8, i8, i8, i16, i32 }
%struct.nameData = type { [64 x i8] }
%struct.RelationData = type { %struct.RelFileLocator, ptr, i32, i32, i8, i8, i8, i8, i8, i32, i32, i32, i32, ptr, ptr, i32, %struct.LockInfoData, ptr, ptr, ptr, ptr, ptr, i8, ptr, ptr, ptr, ptr, ptr, ptr, i32, ptr, i8, ptr, ptr, i32, i8, i32, ptr, i8, ptr, ptr, ptr, ptr, ptr, ptr, ptr, i32, ptr, ptr, ptr, ptr, ptr, ptr, ptr, ptr, ptr, ptr, ptr, ptr, ptr, ptr, ptr, ptr, ptr, ptr, ptr, i32, i8, ptr }
%struct.RelFileLocator = type { i32, i32, i32 }
%struct.LockInfoData = type { %struct.LockRelId }
%struct.LockRelId = type { i32, i32 }
%struct.HeapTupleData = type { i32, %struct.ItemPointerData, i32, ptr }
%struct.ItemPointerData = type { %struct.BlockIdData, i16 }
%struct.BlockIdData = type { i16, i16 }
%struct.HeapTupleHeaderData = type { %union.anon, %struct.ItemPointerData, i16, i16, i8, [0 x i8] }
%union.anon = type { %struct.HeapTupleFields }
%struct.HeapTupleFields = type { i32, i32, %union.anon.0 }
%union.anon.0 = type { i32 }
%struct.AlterTableCmd = type { i32, i32, ptr, i16, ptr, ptr, i32, i8, i8 }
%struct.Constraint = type { i32, i32, ptr, i8, i8, i8, i8, i8, i8, ptr, ptr, i8, i8, i8, ptr, i8, ptr, ptr, ptr, ptr, ptr, i8, ptr, ptr, ptr, ptr, ptr, i8, i8, i8, i8, i8, ptr, ptr, i32, i32 }
%struct.String = type { i32, ptr }

@.str.2 = private unnamed_addr constant [12 x i8] c"tablecmds.c\00", align 1
@.str.221 = private unnamed_addr constant [52 x i8] c"cache lookup failed for attribute %s of relation %u\00", align 1
@__func__.ATPrepAddPrimaryKey = private unnamed_addr constant [20 x i8] c"ATPrepAddPrimaryKey\00", align 1
@.str.222 = private unnamed_addr constant [49 x i8] c"column \22%s\22 of table \22%s\22 is not marked NOT NULL\00", align 1

; Function Attrs: inlinehint nounwind uwtable
define internal ptr @newNode(i64 noundef %0, i32 noundef %1) #6 {
  %3 = alloca i64, align 8
  %4 = alloca i32, align 4
  %5 = alloca ptr, align 8
  store i64 %0, ptr %3, align 8
  store i32 %1, ptr %4, align 4
  call void @llvm.lifetime.start.p0(i64 8, ptr %5) #12
  %6 = load i64, ptr %3, align 8
  %7 = call ptr @palloc0(i64 noundef %6)
  store ptr %7, ptr %5, align 8
  %8 = load i32, ptr %4, align 4
  %9 = load ptr, ptr %5, align 8
  %10 = getelementptr inbounds nuw %struct.Node, ptr %9, i32 0, i32 0
  store i32 %8, ptr %10, align 4
  %11 = load ptr, ptr %5, align 8
  call void @llvm.lifetime.end.p0(i64 8, ptr %5) #12
  ret ptr %11
}

; Function Attrs: inlinehint nounwind uwtable
define internal ptr @GETSTRUCT(ptr noundef %0) #6 {
  %2 = alloca ptr, align 8
  store ptr %0, ptr %2, align 8
  %3 = load ptr, ptr %2, align 8
  %4 = getelementptr inbounds nuw %struct.HeapTupleData, ptr %3, i32 0, i32 3
  %5 = load ptr, ptr %4, align 8
  %6 = load ptr, ptr %2, align 8
  %7 = getelementptr inbounds nuw %struct.HeapTupleData, ptr %6, i32 0, i32 3
  %8 = load ptr, ptr %7, align 8
  %9 = getelementptr inbounds nuw %struct.HeapTupleHeaderData, ptr %8, i32 0, i32 4
  %10 = load i8, ptr %9, align 2
  %11 = zext i8 %10 to i32
  %12 = sext i32 %11 to i64
  %13 = getelementptr inbounds i8, ptr %5, i64 %12
  ret ptr %13
}

; Function Attrs: nounwind uwtable
define internal void @ATPrepAddPrimaryKey(ptr noundef %0, ptr noundef %1, ptr noundef %2, i1 noundef zeroext %3, i32 noundef %4, ptr noundef %5) #0 {
  %7 = alloca ptr, align 8
  %8 = alloca ptr, align 8
  %9 = alloca ptr, align 8
  %10 = alloca i8, align 1
  %11 = alloca i32, align 4
  %12 = alloca ptr, align 8
  %13 = alloca ptr, align 8
  %14 = alloca ptr, align 8
  %15 = alloca i32, align 4
  %16 = alloca ptr, align 8
  %17 = alloca i32, align 4
  %18 = alloca i32, align 4
  %19 = alloca %struct.ForEachState, align 8
  %20 = alloca %struct.ForEachState, align 8
  %21 = alloca ptr, align 8
  %22 = alloca ptr, align 8
  %23 = alloca ptr, align 8
  %24 = alloca %struct.ForEachState, align 8
  %25 = alloca ptr, align 8
  %26 = alloca ptr, align 8
  store ptr %0, ptr %7, align 8
  store ptr %1, ptr %8, align 8
  store ptr %2, ptr %9, align 8
  %27 = zext i1 %3 to i8
  store i8 %27, ptr %10, align 1
  store i32 %4, ptr %11, align 4
  store ptr %5, ptr %12, align 8
  call void @llvm.lifetime.start.p0(i64 8, ptr %13) #12
  call void @llvm.lifetime.start.p0(i64 8, ptr %14) #12
  %28 = load ptr, ptr %9, align 8
  %29 = getelementptr inbounds nuw %struct.AlterTableCmd, ptr %28, i32 0, i32 5
  %30 = load ptr, ptr %29, align 8
  store ptr %30, ptr %14, align 8
  %31 = load ptr, ptr %14, align 8
  %32 = getelementptr inbounds nuw %struct.Constraint, ptr %31, i32 0, i32 1
  %33 = load i32, ptr %32, align 4
  %34 = icmp ne i32 %33, 6
  br i1 %34, label %35, label %36

35:                                               ; preds = %6
  store i32 1, ptr %15, align 4
  br label %225

36:                                               ; preds = %6
  %37 = load i8, ptr %10, align 1, !range !6, !noundef !7
  %38 = trunc i8 %37 to i1
  br i1 %38, label %170, label %39

39:                                               ; preds = %36
  call void @llvm.lifetime.start.p0(i64 8, ptr %16) #12
  %40 = load ptr, ptr %8, align 8
  %41 = getelementptr inbounds nuw %struct.RelationData, ptr %40, i32 0, i32 15
  %42 = load i32, ptr %41, align 8
  %43 = load i32, ptr %11, align 4
  %44 = call ptr @find_inheritance_children(i32 noundef %42, i32 noundef %43)
  store ptr %44, ptr %16, align 8
  call void @llvm.lifetime.start.p0(i64 4, ptr %17) #12
  store i32 0, ptr %17, align 4
  call void @llvm.lifetime.start.p0(i64 4, ptr %18) #12
  store i32 1, ptr %18, align 4
  br label %45

45:                                               ; preds = %168, %39
  %46 = load i32, ptr %18, align 4
  %47 = icmp ne i32 %46, 0
  br i1 %47, label %49, label %48

48:                                               ; preds = %45
  store i32 2, ptr %15, align 4
  call void @llvm.lifetime.end.p0(i64 4, ptr %18) #12
  call void @llvm.lifetime.end.p0(i64 4, ptr %17) #12
  br label %169

49:                                               ; preds = %45
  call void @llvm.lifetime.start.p0(i64 16, ptr %19) #12
  %50 = getelementptr inbounds nuw %struct.ForEachState, ptr %19, i32 0, i32 0
  %51 = load ptr, ptr %16, align 8
  store ptr %51, ptr %50, align 8
  %52 = getelementptr inbounds nuw %struct.ForEachState, ptr %19, i32 0, i32 1
  store i32 0, ptr %52, align 8
  %53 = getelementptr i8, ptr %19, i64 12
  call void @llvm.memset.p0.i64(ptr align 4 %53, i8 0, i64 4, i1 false)
  br label %54

54:                                               ; preds = %163, %49
  %55 = getelementptr inbounds nuw %struct.ForEachState, ptr %19, i32 0, i32 0
  %56 = load ptr, ptr %55, align 8
  %57 = icmp ne ptr %56, null
  br i1 %57, label %58, label %76

58:                                               ; preds = %54
  %59 = getelementptr inbounds nuw %struct.ForEachState, ptr %19, i32 0, i32 1
  %60 = load i32, ptr %59, align 8
  %61 = getelementptr inbounds nuw %struct.ForEachState, ptr %19, i32 0, i32 0
  %62 = load ptr, ptr %61, align 8
  %63 = getelementptr inbounds nuw %struct.List, ptr %62, i32 0, i32 1
  %64 = load i32, ptr %63, align 4
  %65 = icmp slt i32 %60, %64
  br i1 %65, label %66, label %76

66:                                               ; preds = %58
  %67 = getelementptr inbounds nuw %struct.ForEachState, ptr %19, i32 0, i32 0
  %68 = load ptr, ptr %67, align 8
  %69 = getelementptr inbounds nuw %struct.List, ptr %68, i32 0, i32 3
  %70 = load ptr, ptr %69, align 8
  %71 = getelementptr inbounds nuw %struct.ForEachState, ptr %19, i32 0, i32 1
  %72 = load i32, ptr %71, align 8
  %73 = sext i32 %72 to i64
  %74 = getelementptr inbounds %union.ListCell, ptr %70, i64 %73
  %75 = load i32, ptr %74, align 8
  store i32 %75, ptr %17, align 4
  br label %76

76:                                               ; preds = %66, %58, %54
  %77 = phi i1 [ false, %58 ], [ false, %54 ], [ true, %66 ]
  br i1 %77, label %79, label %78

78:                                               ; preds = %76
  store i32 5, ptr %15, align 4
  call void @llvm.lifetime.end.p0(i64 16, ptr %19) #12
  br label %167

79:                                               ; preds = %76
  call void @llvm.lifetime.start.p0(i64 16, ptr %20) #12
  %80 = getelementptr inbounds nuw %struct.ForEachState, ptr %20, i32 0, i32 0
  %81 = load ptr, ptr %14, align 8
  %82 = getelementptr inbounds nuw %struct.Constraint, ptr %81, i32 0, i32 14
  %83 = load ptr, ptr %82, align 8
  store ptr %83, ptr %80, align 8
  %84 = getelementptr inbounds nuw %struct.ForEachState, ptr %20, i32 0, i32 1
  store i32 0, ptr %84, align 8
  %85 = getelementptr i8, ptr %20, i64 12
  call void @llvm.memset.p0.i64(ptr align 4 %85, i8 0, i64 4, i1 false)
  br label %86

86:                                               ; preds = %158, %79
  %87 = getelementptr inbounds nuw %struct.ForEachState, ptr %20, i32 0, i32 0
  %88 = load ptr, ptr %87, align 8
  %89 = icmp ne ptr %88, null
  br i1 %89, label %90, label %107

90:                                               ; preds = %86
  %91 = getelementptr inbounds nuw %struct.ForEachState, ptr %20, i32 0, i32 1
  %92 = load i32, ptr %91, align 8
  %93 = getelementptr inbounds nuw %struct.ForEachState, ptr %20, i32 0, i32 0
  %94 = load ptr, ptr %93, align 8
  %95 = getelementptr inbounds nuw %struct.List, ptr %94, i32 0, i32 1
  %96 = load i32, ptr %95, align 4
  %97 = icmp slt i32 %92, %96
  br i1 %97, label %98, label %107

98:                                               ; preds = %90
  %99 = getelementptr inbounds nuw %struct.ForEachState, ptr %20, i32 0, i32 0
  %100 = load ptr, ptr %99, align 8
  %101 = getelementptr inbounds nuw %struct.List, ptr %100, i32 0, i32 3
  %102 = load ptr, ptr %101, align 8
  %103 = getelementptr inbounds nuw %struct.ForEachState, ptr %20, i32 0, i32 1
  %104 = load i32, ptr %103, align 8
  %105 = sext i32 %104 to i64
  %106 = getelementptr inbounds %union.ListCell, ptr %102, i64 %105
  store ptr %106, ptr %13, align 8
  br label %108

107:                                              ; preds = %90, %86
  store ptr null, ptr %13, align 8
  br label %108

108:                                              ; preds = %107, %98
  %109 = phi i32 [ 1, %98 ], [ 0, %107 ]
  %110 = icmp ne i32 %109, 0
  br i1 %110, label %112, label %111

111:                                              ; preds = %108
  store i32 8, ptr %15, align 4
  call void @llvm.lifetime.end.p0(i64 16, ptr %20) #12
  br label %162

112:                                              ; preds = %108
  call void @llvm.lifetime.start.p0(i64 8, ptr %21) #12
  call void @llvm.lifetime.start.p0(i64 8, ptr %22) #12
  call void @llvm.lifetime.start.p0(i64 8, ptr %23) #12
  %113 = load ptr, ptr %13, align 8
  %114 = load ptr, ptr %113, align 8
  %115 = getelementptr inbounds nuw %struct.String, ptr %114, i32 0, i32 1
  %116 = load ptr, ptr %115, align 8
  store ptr %116, ptr %23, align 8
  %117 = load i32, ptr %17, align 4
  %118 = load ptr, ptr %23, align 8
  %119 = call ptr @SearchSysCacheAttName(i32 noundef %117, ptr noundef %118)
  store ptr %119, ptr %21, align 8
  %120 = load ptr, ptr %21, align 8
  %121 = icmp ne ptr %120, null
  br i1 %121, label %135, label %122

122:                                              ; preds = %112
  br label %123

123:                                              ; preds = %122
  br i1 true, label %124, label %126

124:                                              ; preds = %123
  %125 = call zeroext i1 @errstart_cold(i32 noundef 21, ptr noundef null) #13
  br i1 %125, label %128, label %132

126:                                              ; preds = %123
  %127 = call zeroext i1 @errstart(i32 noundef 21, ptr noundef null)
  br i1 %127, label %128, label %132

128:                                              ; preds = %126, %124
  %129 = load ptr, ptr %23, align 8
  %130 = load i32, ptr %17, align 4
  %131 = call i32 (ptr, ...) @errmsg_internal(ptr noundef @.str.221, ptr noundef %129, i32 noundef %130)
  call void @errfinish(ptr noundef @.str.2, i32 noundef 9343, ptr noundef @__func__.ATPrepAddPrimaryKey)
  br label %132

132:                                              ; preds = %128, %126, %124
  unreachable

133:                                              ; No predecessors!
  br label %134

134:                                              ; preds = %133
  br label %135

135:                                              ; preds = %134, %112
  %136 = load ptr, ptr %21, align 8
  %137 = call ptr @GETSTRUCT(ptr noundef %136)
  store ptr %137, ptr %22, align 8
  %138 = load ptr, ptr %22, align 8
  %139 = getelementptr inbounds nuw %struct.FormData_pg_attribute, ptr %138, i32 0, i32 11
  %140 = load i8, ptr %139, align 2, !range !6, !noundef !7
  %141 = trunc i8 %140 to i1
  br i1 %141, label %156, label %142

142:                                              ; preds = %135
  br label %143

143:                                              ; preds = %142
  br i1 true, label %144, label %146

144:                                              ; preds = %143
  %145 = call zeroext i1 @errstart_cold(i32 noundef 21, ptr noundef null) #13
  br i1 %145, label %148, label %153

146:                                              ; preds = %143
  %147 = call zeroext i1 @errstart(i32 noundef 21, ptr noundef null)
  br i1 %147, label %148, label %153

148:                                              ; preds = %146, %144
  %149 = load ptr, ptr %23, align 8
  %150 = load i32, ptr %17, align 4
  %151 = call ptr @get_rel_name(i32 noundef %150)
  %152 = call i32 (ptr, ...) @errmsg(ptr noundef @.str.222, ptr noundef %149, ptr noundef %151)
  call void @errfinish(ptr noundef @.str.2, i32 noundef 9348, ptr noundef @__func__.ATPrepAddPrimaryKey)
  br label %153

153:                                              ; preds = %148, %146, %144
  unreachable

154:                                              ; No predecessors!
  br label %155

155:                                              ; preds = %154
  br label %156

156:                                              ; preds = %155, %135
  %157 = load ptr, ptr %21, align 8
  call void @ReleaseSysCache(ptr noundef %157)
  call void @llvm.lifetime.end.p0(i64 8, ptr %23) #12
  call void @llvm.lifetime.end.p0(i64 8, ptr %22) #12
  call void @llvm.lifetime.end.p0(i64 8, ptr %21) #12
  br label %158

158:                                              ; preds = %156
  %159 = getelementptr inbounds nuw %struct.ForEachState, ptr %20, i32 0, i32 1
  %160 = load i32, ptr %159, align 8
  %161 = add i32 %160, 1
  store i32 %161, ptr %159, align 8
  br label %86, !llvm.loop !90

162:                                              ; preds = %111
  br label %163

163:                                              ; preds = %162
  %164 = getelementptr inbounds nuw %struct.ForEachState, ptr %19, i32 0, i32 1
  %165 = load i32, ptr %164, align 8
  %166 = add i32 %165, 1
  store i32 %166, ptr %164, align 8
  br label %54, !llvm.loop !91

167:                                              ; preds = %78
  br label %168

168:                                              ; preds = %167
  store i32 0, ptr %18, align 4
  br label %45, !llvm.loop !92

169:                                              ; preds = %48
  call void @llvm.lifetime.end.p0(i64 8, ptr %16) #12
  br label %170

170:                                              ; preds = %169, %36
  call void @llvm.lifetime.start.p0(i64 16, ptr %24) #12
  %171 = getelementptr inbounds nuw %struct.ForEachState, ptr %24, i32 0, i32 0
  %172 = load ptr, ptr %14, align 8
  %173 = getelementptr inbounds nuw %struct.Constraint, ptr %172, i32 0, i32 14
  %174 = load ptr, ptr %173, align 8
  store ptr %174, ptr %171, align 8
  %175 = getelementptr inbounds nuw %struct.ForEachState, ptr %24, i32 0, i32 1
  store i32 0, ptr %175, align 8
  %176 = getelementptr i8, ptr %24, i64 12
  call void @llvm.memset.p0.i64(ptr align 4 %176, i8 0, i64 4, i1 false)
  br label %177

177:                                              ; preds = %220, %170
  %178 = getelementptr inbounds nuw %struct.ForEachState, ptr %24, i32 0, i32 0
  %179 = load ptr, ptr %178, align 8
  %180 = icmp ne ptr %179, null
  br i1 %180, label %181, label %198

181:                                              ; preds = %177
  %182 = getelementptr inbounds nuw %struct.ForEachState, ptr %24, i32 0, i32 1
  %183 = load i32, ptr %182, align 8
  %184 = getelementptr inbounds nuw %struct.ForEachState, ptr %24, i32 0, i32 0
  %185 = load ptr, ptr %184, align 8
  %186 = getelementptr inbounds nuw %struct.List, ptr %185, i32 0, i32 1
  %187 = load i32, ptr %186, align 4
  %188 = icmp slt i32 %183, %187
  br i1 %188, label %189, label %198

189:                                              ; preds = %181
  %190 = getelementptr inbounds nuw %struct.ForEachState, ptr %24, i32 0, i32 0
  %191 = load ptr, ptr %190, align 8
  %192 = getelementptr inbounds nuw %struct.List, ptr %191, i32 0, i32 3
  %193 = load ptr, ptr %192, align 8
  %194 = getelementptr inbounds nuw %struct.ForEachState, ptr %24, i32 0, i32 1
  %195 = load i32, ptr %194, align 8
  %196 = sext i32 %195 to i64
  %197 = getelementptr inbounds %union.ListCell, ptr %193, i64 %196
  store ptr %197, ptr %13, align 8
  br label %199

198:                                              ; preds = %181, %177
  store ptr null, ptr %13, align 8
  br label %199

199:                                              ; preds = %198, %189
  %200 = phi i32 [ 1, %189 ], [ 0, %198 ]
  %201 = icmp ne i32 %200, 0
  br i1 %201, label %203, label %202

202:                                              ; preds = %199
  store i32 15, ptr %15, align 4
  call void @llvm.lifetime.end.p0(i64 16, ptr %24) #12
  br label %224

203:                                              ; preds = %199
  call void @llvm.lifetime.start.p0(i64 8, ptr %25) #12
  call void @llvm.lifetime.start.p0(i64 8, ptr %26) #12
  %204 = load ptr, ptr %13, align 8
  %205 = load ptr, ptr %204, align 8
  %206 = call ptr @makeNotNullConstraint(ptr noundef %205)
  store ptr %206, ptr %26, align 8
  %207 = call ptr @newNode(i64 noundef 48, i32 noundef 148)
  store ptr %207, ptr %25, align 8
  %208 = load ptr, ptr %25, align 8
  %209 = getelementptr inbounds nuw %struct.AlterTableCmd, ptr %208, i32 0, i32 1
  store i32 16, ptr %209, align 4
  %210 = load ptr, ptr %25, align 8
  %211 = getelementptr inbounds nuw %struct.AlterTableCmd, ptr %210, i32 0, i32 8
  store i8 1, ptr %211, align 1
  %212 = load ptr, ptr %26, align 8
  %213 = load ptr, ptr %25, align 8
  %214 = getelementptr inbounds nuw %struct.AlterTableCmd, ptr %213, i32 0, i32 5
  store ptr %212, ptr %214, align 8
  %215 = load ptr, ptr %7, align 8
  %216 = load ptr, ptr %8, align 8
  %217 = load ptr, ptr %25, align 8
  %218 = load i32, ptr %11, align 4
  %219 = load ptr, ptr %12, align 8
  call void @ATPrepCmd(ptr noundef %215, ptr noundef %216, ptr noundef %217, i1 noundef zeroext true, i1 noundef zeroext false, i32 noundef %218, ptr noundef %219)
  call void @llvm.lifetime.end.p0(i64 8, ptr %26) #12
  call void @llvm.lifetime.end.p0(i64 8, ptr %25) #12
  br label %220

220:                                              ; preds = %203
  %221 = getelementptr inbounds nuw %struct.ForEachState, ptr %24, i32 0, i32 1
  %222 = load i32, ptr %221, align 8
  %223 = add i32 %222, 1
  store i32 %223, ptr %221, align 8
  br label %177, !llvm.loop !93

224:                                              ; preds = %202
  store i32 0, ptr %15, align 4
  br label %225

225:                                              ; preds = %224, %35
  call void @llvm.lifetime.end.p0(i64 8, ptr %14) #12
  call void @llvm.lifetime.end.p0(i64 8, ptr %13) #12
  %226 = load i32, ptr %15, align 4
  switch i32 %226, label %228 [
    i32 0, label %227
    i32 1, label %227
  ]

227:                                              ; preds = %225, %225
  ret void

228:                                              ; preds = %225
  unreachable
}