; Function Attrs: nounwind uwtable
define internal fastcc void @ATPrepAddPrimaryKey(ptr noundef nonnull captures(none) %0, ptr noundef %1, ptr noundef readonly captures(none) %2, i1 noundef zeroext %3, i32 noundef %4, ptr noundef %5) unnamed_addr #0 {
  %7 = getelementptr inbounds nuw i8, ptr %2, i64 32
  %8 = load ptr, ptr %7, align 8
  %9 = getelementptr inbounds nuw i8, ptr %8, i64 4
  %10 = load i32, ptr %9, align 4
  %.not = icmp eq i32 %10, 6
  br i1 %.not, label %11, label %.thread64

11:                                               ; preds = %6
  br i1 %3, label %.critedge, label %.critedge60

.critedge60:                                      ; preds = %11
  %12 = getelementptr inbounds nuw i8, ptr %1, i64 72
  %13 = load i32, ptr %12, align 8
  %14 = tail call ptr @find_inheritance_children(i32 noundef %13, i32 noundef %4) #15
  %.not53 = icmp eq ptr %14, null
  br i1 %.not53, label %.critedge, label %.lr.ph80

.lr.ph80:                                         ; preds = %.critedge60
  %15 = getelementptr inbounds nuw i8, ptr %14, i64 4
  %16 = getelementptr inbounds nuw i8, ptr %14, i64 16
  %17 = getelementptr inbounds nuw i8, ptr %8, i64 48
  %18 = load i32, ptr %15, align 4
  %19 = icmp sgt i32 %18, 0
  br i1 %19, label %.lr.ph107, label %.critedge

.lr.ph107:                                        ; preds = %.lr.ph80, %._crit_edge
  %indvars.iv92106 = phi i64 [ %indvars.iv.next93, %._crit_edge ], [ 0, %.lr.ph80 ]
  %20 = load ptr, ptr %16, align 8
  %21 = getelementptr inbounds nuw %union.ListCell, ptr %20, i64 %indvars.iv92106
  %22 = load i32, ptr %21, align 8
  %23 = load ptr, ptr %17, align 8
  %.not54 = icmp eq ptr %23, null
  br i1 %.not54, label %._crit_edge, label %.lr.ph

.lr.ph:                                           ; preds = %.lr.ph107
  %24 = getelementptr inbounds nuw i8, ptr %23, i64 4
  %25 = getelementptr inbounds nuw i8, ptr %23, i64 16
  %26 = load i32, ptr %24, align 4
  %27 = icmp sgt i32 %26, 0
  br i1 %27, label %.lr.ph78, label %._crit_edge

._crit_edge:                                      ; preds = %51, %.lr.ph, %.lr.ph107
  %indvars.iv.next93 = add nuw nsw i64 %indvars.iv92106, 1
  %28 = load i32, ptr %15, align 4
  %29 = sext i32 %28 to i64
  %30 = icmp slt i64 %indvars.iv.next93, %29
  br i1 %30, label %.lr.ph107, label %.critedge

.lr.ph78:                                         ; preds = %.lr.ph, %51
  %indvars.iv = phi i64 [ %indvars.iv.next, %51 ], [ 0, %.lr.ph ]
  %31 = load ptr, ptr %25, align 8
  %32 = getelementptr inbounds nuw %union.ListCell, ptr %31, i64 %indvars.iv
  %33 = load ptr, ptr %32, align 8
  %34 = getelementptr inbounds nuw i8, ptr %33, i64 8
  %35 = load ptr, ptr %34, align 8
  %36 = tail call ptr @SearchSysCacheAttName(i32 noundef %22, ptr noundef %35) #15
  %.not56 = icmp eq ptr %36, null
  br i1 %.not56, label %.split, label %39

.split:                                           ; preds = %.lr.ph78
  %37 = tail call zeroext i1 @errstart_cold(i32 noundef 21, ptr noundef null) #16
  tail call void @llvm.assume(i1 %37)
  %38 = tail call i32 (ptr, ...) @errmsg_internal(ptr noundef nonnull @.str.221, ptr noundef %35, i32 noundef %22) #15
  tail call void @errfinish(ptr noundef nonnull @.str.2, i32 noundef 9343, ptr noundef nonnull @__func__.ATPrepAddPrimaryKey) #15
  unreachable

39:                                               ; preds = %.lr.ph78
  %40 = getelementptr i8, ptr %36, i64 16
  %.val = load ptr, ptr %40, align 8
  %41 = getelementptr inbounds nuw i8, ptr %.val, i64 22
  %42 = load i8, ptr %41, align 2
  %43 = zext i8 %42 to i64
  %44 = getelementptr inbounds nuw i8, ptr %.val, i64 %43
  %45 = getelementptr inbounds nuw i8, ptr %44, i64 86
  %46 = load i8, ptr %45, align 2, !range !6, !noundef !7
  %47 = trunc nuw i8 %46 to i1
  br i1 %47, label %51, label %.split74

.split74:                                         ; preds = %39
  %48 = tail call zeroext i1 @errstart_cold(i32 noundef 21, ptr noundef null) #16
  tail call void @llvm.assume(i1 %48)
  %49 = tail call ptr @get_rel_name(i32 noundef %22) #15
  %50 = tail call i32 (ptr, ...) @errmsg(ptr noundef nonnull @.str.222, ptr noundef %35, ptr noundef %49) #15
  tail call void @errfinish(ptr noundef nonnull @.str.2, i32 noundef 9348, ptr noundef nonnull @__func__.ATPrepAddPrimaryKey) #15
  unreachable

51:                                               ; preds = %39
  tail call void @ReleaseSysCache(ptr noundef nonnull %36) #15
  %indvars.iv.next = add nuw nsw i64 %indvars.iv, 1
  %52 = load i32, ptr %24, align 4
  %53 = sext i32 %52 to i64
  %54 = icmp slt i64 %indvars.iv.next, %53
  br i1 %54, label %.lr.ph78, label %._crit_edge

.critedge:                                        ; preds = %._crit_edge, %.lr.ph80, %.critedge60, %11
  %55 = getelementptr inbounds nuw i8, ptr %8, i64 48
  %56 = load ptr, ptr %55, align 8
  %57 = getelementptr inbounds nuw i8, ptr %56, i64 4
  %.not57 = icmp eq ptr %56, null
  br i1 %.not57, label %.thread64, label %.lr.ph83

.lr.ph83:                                         ; preds = %.critedge
  %58 = getelementptr inbounds nuw i8, ptr %56, i64 16
  %59 = load i32, ptr %57, align 4
  %60 = icmp sgt i32 %59, 0
  br i1 %60, label %.lr.ph86, label %.thread64

.lr.ph86:                                         ; preds = %.lr.ph83, %.lr.ph86
  %indvars.iv95 = phi i64 [ %indvars.iv.next96, %.lr.ph86 ], [ 0, %.lr.ph83 ]
  %61 = load ptr, ptr %58, align 8
  %62 = getelementptr inbounds nuw %union.ListCell, ptr %61, i64 %indvars.iv95
  %63 = load ptr, ptr %62, align 8
  %64 = tail call ptr @makeNotNullConstraint(ptr noundef %63) #15
  %65 = tail call noundef ptr @palloc0(i64 noundef 48) #15
  store i32 148, ptr %65, align 4
  %66 = getelementptr inbounds nuw i8, ptr %65, i64 4
  store i32 16, ptr %66, align 4
  %67 = getelementptr inbounds nuw i8, ptr %65, i64 45
  store i8 1, ptr %67, align 1
  %68 = getelementptr inbounds nuw i8, ptr %65, i64 32
  store ptr %64, ptr %68, align 8
  tail call fastcc void @ATPrepCmd(ptr noundef %0, ptr noundef %1, ptr noundef nonnull %65, i1 noundef zeroext true, i1 noundef zeroext false, i32 noundef %4, ptr noundef %5)
  %indvars.iv.next96 = add nuw nsw i64 %indvars.iv95, 1
  %69 = load i32, ptr %57, align 4
  %70 = sext i32 %69 to i64
  %71 = icmp slt i64 %indvars.iv.next96, %70
  br i1 %71, label %.lr.ph86, label %.thread64

.thread64:                                        ; preds = %.lr.ph86, %.critedge, %.lr.ph83, %6
  ret void
}